target datalayout = "e-m:e-p270:32:32-p271:32:32-p272:64:64-i64:64-i128:128-f80:128-n8:16:32:64-S128"
target triple = "x86_64-pc-linux-gnu"

@d2utable = dso_local constant [50 x i8] c"\00\01\01\01\02\02\02\03\03\03\04\04\04\05\05\05\06\06\06\07\07\07\08\08\08\09\09\09\0A\0A\0A\0B\0B\0B\0C\0C\0C\0D\0D\0D\0E\0E\0E\0F\0F\0F\10\10\10\11", align 16
@DECPOWERS = external constant [10 x i32], align 16
@multies = internal constant [5 x i32] [i32 131073, i32 26215, i32 5243, i32 1049, i32 210], align 16

; Function Attrs: nounwind uwtable
define internal i32 @decShiftToLeast(ptr noundef %0, i32 noundef %1, i32 noundef %2) #0 {
  %4 = alloca i32, align 4
  %5 = alloca ptr, align 8
  %6 = alloca i32, align 4
  %7 = alloca i32, align 4
  %8 = alloca ptr, align 8
  %9 = alloca ptr, align 8
  %10 = alloca i32, align 4
  %11 = alloca i32, align 4
  %12 = alloca i32, align 4
  %13 = alloca i32, align 4
  %14 = alloca i32, align 4
  store ptr %0, ptr %5, align 8, !tbaa !12
  store i32 %1, ptr %6, align 4, !tbaa !8
  store i32 %2, ptr %7, align 4, !tbaa !8
  call void @llvm.lifetime.start.p0(i64 8, ptr %8) #7
  call void @llvm.lifetime.start.p0(i64 8, ptr %9) #7
  call void @llvm.lifetime.start.p0(i64 4, ptr %10) #7
  call void @llvm.lifetime.start.p0(i64 4, ptr %11) #7
  call void @llvm.lifetime.start.p0(i64 4, ptr %12) #7
  call void @llvm.lifetime.start.p0(i64 4, ptr %13) #7
  %15 = load i32, ptr %7, align 4, !tbaa !8
  %16 = icmp eq i32 %15, 0
  br i1 %16, label %17, label %19

17:                                               ; preds = %3
  %18 = load i32, ptr %6, align 4, !tbaa !8
  store i32 %18, ptr %4, align 4
  store i32 1, ptr %14, align 4
  br label %200

19:                                               ; preds = %3
  %20 = load i32, ptr %7, align 4, !tbaa !8
  %21 = load i32, ptr %6, align 4, !tbaa !8
  %22 = mul nsw i32 %21, 3
  %23 = icmp eq i32 %20, %22
  br i1 %23, label %24, label %26

24:                                               ; preds = %19
  %25 = load ptr, ptr %5, align 8, !tbaa !12
  store i16 0, ptr %25, align 2, !tbaa !14
  store i32 1, ptr %4, align 4
  store i32 1, ptr %14, align 4
  br label %200

26:                                               ; preds = %19
  %27 = load ptr, ptr %5, align 8, !tbaa !12
  store ptr %27, ptr %8, align 8, !tbaa !12
  %28 = load i32, ptr %7, align 4, !tbaa !8
  %29 = load i32, ptr %7, align 4, !tbaa !8
  %30 = icmp sle i32 %29, 49
  br i1 %30, label %31, label %37

31:                                               ; preds = %26
  %32 = load i32, ptr %7, align 4, !tbaa !8
  %33 = sext i32 %32 to i64
  %34 = getelementptr inbounds [50 x i8], ptr @d2utable, i64 0, i64 %33
  %35 = load i8, ptr %34, align 1, !tbaa !25
  %36 = zext i8 %35 to i32
  br label %42

37:                                               ; preds = %26
  %38 = load i32, ptr %7, align 4, !tbaa !8
  %39 = add nsw i32 %38, 3
  %40 = sub nsw i32 %39, 1
  %41 = sdiv i32 %40, 3
  br label %42

42:                                               ; preds = %37, %31
  %43 = phi i32 [ %36, %31 ], [ %41, %37 ]
  %44 = sub nsw i32 %43, 1
  %45 = mul nsw i32 %44, 3
  %46 = sub nsw i32 %28, %45
  store i32 %46, ptr %10, align 4, !tbaa !8
  %47 = load i32, ptr %10, align 4, !tbaa !8
  %48 = icmp eq i32 %47, 3
  br i1 %48, label %49, label %92

49:                                               ; preds = %42
  %50 = load ptr, ptr %5, align 8, !tbaa !12
  %51 = load i32, ptr %7, align 4, !tbaa !8
  %52 = icmp sle i32 %51, 49
  br i1 %52, label %53, label %59

53:                                               ; preds = %49
  %54 = load i32, ptr %7, align 4, !tbaa !8
  %55 = sext i32 %54 to i64
  %56 = getelementptr inbounds [50 x i8], ptr @d2utable, i64 0, i64 %55
  %57 = load i8, ptr %56, align 1, !tbaa !25
  %58 = zext i8 %57 to i32
  br label %64

59:                                               ; preds = %49
  %60 = load i32, ptr %7, align 4, !tbaa !8
  %61 = add nsw i32 %60, 3
  %62 = sub nsw i32 %61, 1
  %63 = sdiv i32 %62, 3
  br label %64

64:                                               ; preds = %59, %53
  %65 = phi i32 [ %58, %53 ], [ %63, %59 ]
  %66 = sext i32 %65 to i64
  %67 = getelementptr inbounds i16, ptr %50, i64 %66
  store ptr %67, ptr %9, align 8, !tbaa !12
  br label %68

68:                                               ; preds = %79, %64
  %69 = load ptr, ptr %9, align 8, !tbaa !12
  %70 = load ptr, ptr %5, align 8, !tbaa !12
  %71 = load i32, ptr %6, align 4, !tbaa !8
  %72 = sext i32 %71 to i64
  %73 = getelementptr inbounds i16, ptr %70, i64 %72
  %74 = icmp ult ptr %69, %73
  br i1 %74, label %75, label %84

75:                                               ; preds = %68
  %76 = load ptr, ptr %9, align 8, !tbaa !12
  %77 = load i16, ptr %76, align 2, !tbaa !14
  %78 = load ptr, ptr %8, align 8, !tbaa !12
  store i16 %77, ptr %78, align 2, !tbaa !14
  br label %79

79:                                               ; preds = %75
  %80 = load ptr, ptr %8, align 8, !tbaa !12
  %81 = getelementptr inbounds nuw i16, ptr %80, i32 1
  store ptr %81, ptr %8, align 8, !tbaa !12
  %82 = load ptr, ptr %9, align 8, !tbaa !12
  %83 = getelementptr inbounds nuw i16, ptr %82, i32 1
  store ptr %83, ptr %9, align 8, !tbaa !12
  br label %68, !llvm.loop !85

84:                                               ; preds = %68
  %85 = load ptr, ptr %8, align 8, !tbaa !12
  %86 = load ptr, ptr %5, align 8, !tbaa !12
  %87 = ptrtoint ptr %85 to i64
  %88 = ptrtoint ptr %86 to i64
  %89 = sub i64 %87, %88
  %90 = sdiv exact i64 %89, 2
  %91 = trunc i64 %90 to i32
  store i32 %91, ptr %4, align 4
  store i32 1, ptr %14, align 4
  br label %200

92:                                               ; preds = %42
  %93 = load ptr, ptr %5, align 8, !tbaa !12
  %94 = load i32, ptr %7, align 4, !tbaa !8
  %95 = load i32, ptr %10, align 4, !tbaa !8
  %96 = sub nsw i32 %94, %95
  %97 = icmp sle i32 %96, 49
  br i1 %97, label %98, label %106

98:                                               ; preds = %92
  %99 = load i32, ptr %7, align 4, !tbaa !8
  %100 = load i32, ptr %10, align 4, !tbaa !8
  %101 = sub nsw i32 %99, %100
  %102 = sext i32 %101 to i64
  %103 = getelementptr inbounds [50 x i8], ptr @d2utable, i64 0, i64 %102
  %104 = load i8, ptr %103, align 1, !tbaa !25
  %105 = zext i8 %104 to i32
  br label %113

106:                                              ; preds = %92
  %107 = load i32, ptr %7, align 4, !tbaa !8
  %108 = load i32, ptr %10, align 4, !tbaa !8
  %109 = sub nsw i32 %107, %108
  %110 = add nsw i32 %109, 3
  %111 = sub nsw i32 %110, 1
  %112 = sdiv i32 %111, 3
  br label %113

113:                                              ; preds = %106, %98
  %114 = phi i32 [ %105, %98 ], [ %112, %106 ]
  %115 = sext i32 %114 to i64
  %116 = getelementptr inbounds i16, ptr %93, i64 %115
  store ptr %116, ptr %9, align 8, !tbaa !12
  %117 = load i32, ptr %6, align 4, !tbaa !8
  %118 = mul nsw i32 %117, 3
  %119 = load i32, ptr %7, align 4, !tbaa !8
  %120 = sub nsw i32 %118, %119
  store i32 %120, ptr %11, align 4, !tbaa !8
  %121 = load ptr, ptr %9, align 8, !tbaa !12
  %122 = load i16, ptr %121, align 2, !tbaa !14
  %123 = zext i16 %122 to i32
  %124 = load i32, ptr %10, align 4, !tbaa !8
  %125 = lshr i32 %123, %124
  %126 = load i32, ptr %10, align 4, !tbaa !8
  %127 = sext i32 %126 to i64
  %128 = getelementptr inbounds [5 x i32], ptr @multies, i64 0, i64 %127
  %129 = load i32, ptr %128, align 4, !tbaa !8
  %130 = mul i32 %125, %129
  %131 = lshr i32 %130, 17
  store i32 %131, ptr %12, align 4, !tbaa !8
  br label %132

132:                                              ; preds = %188, %113
  %133 = load i32, ptr %12, align 4, !tbaa !8
  %134 = trunc i32 %133 to i16
  %135 = load ptr, ptr %8, align 8, !tbaa !12
  store i16 %134, ptr %135, align 2, !tbaa !14
  %136 = load i32, ptr %10, align 4, !tbaa !8
  %137 = sub nsw i32 3, %136
  %138 = load i32, ptr %11, align 4, !tbaa !8
  %139 = sub nsw i32 %138, %137
  store i32 %139, ptr %11, align 4, !tbaa !8
  %140 = load i32, ptr %11, align 4, !tbaa !8
  %141 = icmp sle i32 %140, 0
  br i1 %141, label %142, label %143

142:                                              ; preds = %132
  br label %191

143:                                              ; preds = %132
  %144 = load ptr, ptr %9, align 8, !tbaa !12
  %145 = getelementptr inbounds nuw i16, ptr %144, i32 1
  store ptr %145, ptr %9, align 8, !tbaa !12
  %146 = load ptr, ptr %9, align 8, !tbaa !12
  %147 = load i16, ptr %146, align 2, !tbaa !14
  %148 = zext i16 %147 to i32
  store i32 %148, ptr %12, align 4, !tbaa !8
  %149 = load i32, ptr %12, align 4, !tbaa !8
  %150 = load i32, ptr %10, align 4, !tbaa !8
  %151 = lshr i32 %149, %150
  %152 = load i32, ptr %10, align 4, !tbaa !8
  %153 = sext i32 %152 to i64
  %154 = getelementptr inbounds [5 x i32], ptr @multies, i64 0, i64 %153
  %155 = load i32, ptr %154, align 4, !tbaa !8
  %156 = mul i32 %151, %155
  %157 = lshr i32 %156, 17
  store i32 %157, ptr %12, align 4, !tbaa !8
  %158 = load ptr, ptr %9, align 8, !tbaa !12
  %159 = load i16, ptr %158, align 2, !tbaa !14
  %160 = zext i16 %159 to i32
  %161 = load i32, ptr %12, align 4, !tbaa !8
  %162 = load i32, ptr %10, align 4, !tbaa !8
  %163 = sext i32 %162 to i64
  %164 = getelementptr inbounds [10 x i32], ptr @DECPOWERS, i64 0, i64 %163
  %165 = load i32, ptr %164, align 4, !tbaa !8
  %166 = mul i32 %161, %165
  %167 = sub i32 %160, %166
  store i32 %167, ptr %13, align 4, !tbaa !8
  %168 = load ptr, ptr %8, align 8, !tbaa !12
  %169 = load i16, ptr %168, align 2, !tbaa !14
  %170 = zext i16 %169 to i32
  %171 = load i32, ptr %13, align 4, !tbaa !8
  %172 = load i32, ptr %10, align 4, !tbaa !8
  %173 = sub nsw i32 3, %172
  %174 = sext i32 %173 to i64
  %175 = getelementptr inbounds [10 x i32], ptr @DECPOWERS, i64 0, i64 %174
  %176 = load i32, ptr %175, align 4, !tbaa !8
  %177 = mul i32 %171, %176
  %178 = add i32 %170, %177
  %179 = trunc i32 %178 to i16
  %180 = load ptr, ptr %8, align 8, !tbaa !12
  store i16 %179, ptr %180, align 2, !tbaa !14
  %181 = load i32, ptr %10, align 4, !tbaa !8
  %182 = load i32, ptr %11, align 4, !tbaa !8
  %183 = sub nsw i32 %182, %181
  store i32 %183, ptr %11, align 4, !tbaa !8
  %184 = load i32, ptr %11, align 4, !tbaa !8
  %185 = icmp sle i32 %184, 0
  br i1 %185, label %186, label %187

186:                                              ; preds = %143
  br label %191

187:                                              ; preds = %143
  br label %188

188:                                              ; preds = %187
  %189 = load ptr, ptr %8, align 8, !tbaa !12
  %190 = getelementptr inbounds nuw i16, ptr %189, i32 1
  store ptr %190, ptr %8, align 8, !tbaa !12
  br label %132

191:                                              ; preds = %186, %142
  %192 = load ptr, ptr %8, align 8, !tbaa !12
  %193 = load ptr, ptr %5, align 8, !tbaa !12
  %194 = ptrtoint ptr %192 to i64
  %195 = ptrtoint ptr %193 to i64
  %196 = sub i64 %194, %195
  %197 = sdiv exact i64 %196, 2
  %198 = add nsw i64 %197, 1
  %199 = trunc i64 %198 to i32
  store i32 %199, ptr %4, align 4
  store i32 1, ptr %14, align 4
  br label %200

200:                                              ; preds = %191, %84, %24, %17
  call void @llvm.lifetime.end.p0(i64 4, ptr %13) #7
  call void @llvm.lifetime.end.p0(i64 4, ptr %12) #7
  call void @llvm.lifetime.end.p0(i64 4, ptr %11) #7
  call void @llvm.lifetime.end.p0(i64 4, ptr %10) #7
  call void @llvm.lifetime.end.p0(i64 8, ptr %9) #7
  call void @llvm.lifetime.end.p0(i64 8, ptr %8) #7
  %201 = load i32, ptr %4, align 4
  ret i32 %201
}