; Function Attrs: nofree norecurse nosync nounwind memory(argmem: readwrite) uwtable
define internal fastcc i32 @decShiftToLeast(ptr noundef %0, i32 noundef %1, i32 noundef %2) unnamed_addr #0 {
  %4 = icmp eq i32 %2, 0
  br i1 %4, label %103, label %5

5:                                                ; preds = %3
  %6 = mul nsw i32 %1, 3
  %7 = icmp eq i32 %2, %6
  br i1 %7, label %8, label %9

8:                                                ; preds = %5
  store i16 0, ptr %0, align 2, !tbaa !11
  br label %103

9:                                                ; preds = %5
  %10 = icmp slt i32 %2, 50
  br i1 %10, label %11, label %.thread

11:                                               ; preds = %9
  %12 = sext i32 %2 to i64
  %13 = getelementptr inbounds [50 x i8], ptr @d2utable, i64 0, i64 %12
  %14 = load i8, ptr %13, align 1, !tbaa !19
  %15 = zext i8 %14 to i32
  %16 = mul nuw nsw i32 %15, 3
  %17 = add nsw i32 %16, -3
  %18 = sub nsw i32 %2, %17
  %19 = icmp eq i32 %18, 3
  br i1 %19, label %.thread71, label %42

.thread:                                          ; preds = %9
  %20 = add nuw nsw i32 %2, 2
  %21 = urem i32 %20, 3
  %22 = udiv i32 %20, 3
  %23 = sub nuw nsw i32 %20, %21
  %24 = add nsw i32 %23, -3
  %25 = sub nsw i32 %2, %24
  %26 = icmp eq i32 %25, 3
  br i1 %26, label %.thread71, label %42

.thread71:                                        ; preds = %.thread, %11
  %27 = phi i32 [ %15, %11 ], [ %22, %.thread ]
  %28 = sext i32 %1 to i64
  %29 = getelementptr inbounds i16, ptr %0, i64 %28
  %30 = icmp slt i32 %27, %1
  br i1 %30, label %.lr.ph80.preheader, label %._crit_edge81

.lr.ph80.preheader:                               ; preds = %.thread71
  %31 = zext nneg i32 %27 to i64
  %32 = getelementptr inbounds nuw i16, ptr %0, i64 %31
  br label %.lr.ph80

.lr.ph80:                                         ; preds = %.lr.ph80.preheader, %.lr.ph80
  %.06178 = phi ptr [ %34, %.lr.ph80 ], [ %0, %.lr.ph80.preheader ]
  %.06277 = phi ptr [ %35, %.lr.ph80 ], [ %32, %.lr.ph80.preheader ]
  %33 = load i16, ptr %.06277, align 2, !tbaa !11
  store i16 %33, ptr %.06178, align 2, !tbaa !11
  %34 = getelementptr inbounds nuw i8, ptr %.06178, i64 2
  %35 = getelementptr inbounds nuw i8, ptr %.06277, i64 2
  %36 = icmp ult ptr %35, %29
  br i1 %36, label %.lr.ph80, label %._crit_edge81, !llvm.loop !71

._crit_edge81:                                    ; preds = %.lr.ph80, %.thread71
  %.061.lcssa = phi ptr [ %0, %.thread71 ], [ %34, %.lr.ph80 ]
  %37 = ptrtoint ptr %.061.lcssa to i64
  %38 = ptrtoint ptr %0 to i64
  %39 = sub i64 %37, %38
  %40 = lshr exact i64 %39, 1
  %41 = trunc i64 %40 to i32
  br label %103

42:                                               ; preds = %.thread, %11
  %43 = phi i32 [ %25, %.thread ], [ %18, %11 ]
  %44 = phi i32 [ %24, %.thread ], [ %17, %11 ]
  %45 = phi i32 [ %23, %.thread ], [ %16, %11 ]
  %46 = icmp slt i32 %44, 50
  br i1 %46, label %47, label %52

47:                                               ; preds = %42
  %48 = sext i32 %44 to i64
  %49 = getelementptr inbounds [50 x i8], ptr @d2utable, i64 0, i64 %48
  %50 = load i8, ptr %49, align 1, !tbaa !19
  %51 = zext i8 %50 to i32
  br label %55

52:                                               ; preds = %42
  %53 = add nsw i32 %45, -1
  %54 = udiv i32 %53, 3
  br label %55

55:                                               ; preds = %52, %47
  %56 = phi i32 [ %51, %47 ], [ %54, %52 ]
  %57 = zext nneg i32 %56 to i64
  %58 = getelementptr inbounds nuw i16, ptr %0, i64 %57
  %59 = load i16, ptr %58, align 2, !tbaa !11
  %60 = zext i16 %59 to i32
  %61 = lshr i32 %60, %43
  %62 = sext i32 %43 to i64
  %63 = getelementptr inbounds [5 x i32], ptr @multies, i64 0, i64 %62
  %64 = load i32, ptr %63, align 4, !tbaa !16
  %65 = mul i32 %61, %64
  %66 = lshr i32 %65, 17
  %67 = sub nsw i32 3, %43
  %68 = trunc nuw nsw i32 %66 to i16
  store i16 %68, ptr %0, align 2, !tbaa !11
  %69 = add i32 %2, %67
  %70 = sub i32 %6, %69
  %71 = icmp slt i32 %70, 1
  br i1 %71, label %._crit_edge, label %.lr.ph

.lr.ph:                                           ; preds = %55
  %72 = getelementptr inbounds [10 x i32], ptr @DECPOWERS, i64 0, i64 %62
  %73 = load i32, ptr %72, align 4, !tbaa !16
  %74 = sext i32 %67 to i64
  %75 = getelementptr inbounds [10 x i32], ptr @DECPOWERS, i64 0, i64 %74
  %76 = load i32, ptr %75, align 4, !tbaa !16
  br label %77

77:                                               ; preds = %.lr.ph, %92
  %78 = phi i32 [ %70, %.lr.ph ], [ %95, %92 ]
  %.05974 = phi i32 [ %66, %.lr.ph ], [ %84, %92 ]
  %.173 = phi ptr [ %0, %.lr.ph ], [ %93, %92 ]
  %.16372 = phi ptr [ %58, %.lr.ph ], [ %79, %92 ]
  %79 = getelementptr inbounds nuw i8, ptr %.16372, i64 2
  %80 = load i16, ptr %79, align 2, !tbaa !11
  %81 = zext i16 %80 to i32
  %82 = lshr i32 %81, %43
  %83 = mul i32 %82, %64
  %84 = lshr i32 %83, 17
  %85 = mul i32 %84, %73
  %86 = sub i32 %81, %85
  %87 = mul i32 %86, %76
  %88 = add i32 %87, %.05974
  %89 = trunc i32 %88 to i16
  store i16 %89, ptr %.173, align 2, !tbaa !11
  %90 = sub nsw i32 %78, %43
  %91 = icmp slt i32 %90, 1
  br i1 %91, label %._crit_edge, label %92

92:                                               ; preds = %77
  %93 = getelementptr inbounds nuw i8, ptr %.173, i64 2
  %94 = trunc nuw nsw i32 %84 to i16
  store i16 %94, ptr %93, align 2, !tbaa !11
  %95 = sub nsw i32 %90, %67
  %96 = icmp slt i32 %95, 1
  br i1 %96, label %._crit_edge, label %77

._crit_edge:                                      ; preds = %92, %77, %55
  %.1.lcssa = phi ptr [ %0, %55 ], [ %.173, %77 ], [ %93, %92 ]
  %97 = ptrtoint ptr %.1.lcssa to i64
  %98 = ptrtoint ptr %0 to i64
  %99 = sub i64 %97, %98
  %100 = lshr exact i64 %99, 1
  %101 = trunc i64 %100 to i32
  %102 = add i32 %101, 1
  br label %103

103:                                              ; preds = %3, %._crit_edge, %._crit_edge81, %8
  %.0 = phi i32 [ 1, %8 ], [ %41, %._crit_edge81 ], [ %102, %._crit_edge ], [ %1, %3 ]
  ret i32 %.0
}